
test_c:     file format elf32-bigmips


Disassembly of section .init:

00400018 <_init>:
  400018:	27bdffe0 	addiu	sp,sp,-32
  40001c:	afbf0014 	sw	ra,20(sp)
  400020:	0c10003a 	jal	4000e8 <frame_dummy>
  400024:	00000000 	nop
  400028:	0c100084 	jal	400210 <__do_global_ctors_aux>
  40002c:	00000000 	nop
  400030:	8fbf0014 	lw	ra,20(sp)
  400034:	27bd0020 	addiu	sp,sp,32
  400038:	03e00008 	jr	ra
  40003c:	00000000 	nop

Disassembly of section .text:

00400040 <_ftext>:
  400040:	27bdffe0 	addiu	sp,sp,-32
  400044:	afb10014 	sw	s1,20(sp)
  400048:	3c110040 	lui	s1,0x40
  40004c:	922212c8 	lbu	v0,4808(s1)
  400050:	afbf0018 	sw	ra,24(sp)
  400054:	14400019 	bnez	v0,4000bc <_ftext+0x7c>
  400058:	afb00010 	sw	s0,16(sp)
  40005c:	3c100040 	lui	s0,0x40
  400060:	8e0212c4 	lw	v0,4804(s0)
  400064:	00000000 	nop
  400068:	8c430000 	lw	v1,0(v0)
  40006c:	00000000 	nop
  400070:	10600009 	beqz	v1,400098 <_ftext+0x58>
  400074:	24420004 	addiu	v0,v0,4
  400078:	0060f809 	jalr	v1
  40007c:	ae0212c4 	sw	v0,4804(s0)
  400080:	8e0212c4 	lw	v0,4804(s0)
  400084:	00000000 	nop
  400088:	8c430000 	lw	v1,0(v0)
  40008c:	00000000 	nop
  400090:	1460fff9 	bnez	v1,400078 <_ftext+0x38>
  400094:	24420004 	addiu	v0,v0,4
  400098:	3c020000 	lui	v0,0x0
  40009c:	24420000 	addiu	v0,v0,0
  4000a0:	10400005 	beqz	v0,4000b8 <_ftext+0x78>
  4000a4:	24020001 	li	v0,1
  4000a8:	3c040040 	lui	a0,0x40
  4000ac:	0c000000 	jal	0 <_init-0x400018>
  4000b0:	248402a8 	addiu	a0,a0,680
  4000b4:	24020001 	li	v0,1
  4000b8:	a22212c8 	sb	v0,4808(s1)
  4000bc:	8fbf0018 	lw	ra,24(sp)
  4000c0:	8fb10014 	lw	s1,20(sp)
  4000c4:	8fb00010 	lw	s0,16(sp)
  4000c8:	03e00008 	jr	ra
  4000cc:	27bd0020 	addiu	sp,sp,32

004000d0 <call___do_global_dtors_aux>:
  4000d0:	27bdffe8 	addiu	sp,sp,-24
  4000d4:	afbf0010 	sw	ra,16(sp)
  4000d8:	8fbf0010 	lw	ra,16(sp)
  4000dc:	00000000 	nop
  4000e0:	03e00008 	jr	ra
  4000e4:	27bd0018 	addiu	sp,sp,24

004000e8 <frame_dummy>:
  4000e8:	3c020000 	lui	v0,0x0
  4000ec:	27bdffe8 	addiu	sp,sp,-24
  4000f0:	3c040040 	lui	a0,0x40
  4000f4:	3c050040 	lui	a1,0x40
  4000f8:	24420000 	addiu	v0,v0,0
  4000fc:	afbf0010 	sw	ra,16(sp)
  400100:	248402a8 	addiu	a0,a0,680
  400104:	10400003 	beqz	v0,400114 <frame_dummy+0x2c>
  400108:	24a512cc 	addiu	a1,a1,4812
  40010c:	0c000000 	jal	0 <_init-0x400018>
  400110:	00000000 	nop
  400114:	3c040040 	lui	a0,0x40
  400118:	8c8312bc 	lw	v1,4796(a0)
  40011c:	3c020000 	lui	v0,0x0
  400120:	10600007 	beqz	v1,400140 <frame_dummy+0x58>
  400124:	24590000 	addiu	t9,v0,0
  400128:	248412bc 	addiu	a0,a0,4796
  40012c:	13200004 	beqz	t9,400140 <frame_dummy+0x58>
  400130:	00000000 	nop
  400134:	8fbf0010 	lw	ra,16(sp)
  400138:	03200008 	jr	t9
  40013c:	27bd0018 	addiu	sp,sp,24
  400140:	8fbf0010 	lw	ra,16(sp)
  400144:	00000000 	nop
  400148:	03e00008 	jr	ra
  40014c:	27bd0018 	addiu	sp,sp,24

00400150 <call_frame_dummy>:
  400150:	27bdffe8 	addiu	sp,sp,-24
  400154:	afbf0010 	sw	ra,16(sp)
  400158:	8fbf0010 	lw	ra,16(sp)
  40015c:	00000000 	nop
  400160:	03e00008 	jr	ra
  400164:	27bd0018 	addiu	sp,sp,24

00400168 <main>:
  400168:	27bdffd8 	addiu	sp,sp,-40
  40016c:	afbe0020 	sw	s8,32(sp)
  400170:	03a0f021 	move	s8,sp
  400174:	2402000c 	li	v0,12
  400178:	afc20014 	sw	v0,20(s8)
  40017c:	2402fffb 	li	v0,-5
  400180:	afc20010 	sw	v0,16(s8)
  400184:	8fc30014 	lw	v1,20(s8)
  400188:	8fc20010 	lw	v0,16(s8)
  40018c:	00000000 	nop
  400190:	00621023 	subu	v0,v1,v0
  400194:	afc20018 	sw	v0,24(s8)
  400198:	8fc20018 	lw	v0,24(s8)
  40019c:	00000000 	nop
  4001a0:	2442fff6 	addiu	v0,v0,-10
  4001a4:	afc20010 	sw	v0,16(s8)
  4001a8:	2402000c 	li	v0,12
  4001ac:	afc2000c 	sw	v0,12(s8)
  4001b0:	24020005 	li	v0,5
  4001b4:	afc20008 	sw	v0,8(s8)
  4001b8:	8fc3000c 	lw	v1,12(s8)
  4001bc:	8fc20008 	lw	v0,8(s8)
  4001c0:	00000000 	nop
  4001c4:	00621023 	subu	v0,v1,v0
  4001c8:	afc20004 	sw	v0,4(s8)
  4001cc:	3c020040 	lui	v0,0x40
  4001d0:	244202a0 	addiu	v0,v0,672
  4001d4:	a3c20001 	sb	v0,1(s8)
  4001d8:	3c020040 	lui	v0,0x40
  4001dc:	244202a4 	addiu	v0,v0,676
  4001e0:	a3c20000 	sb	v0,0(s8)
  4001e4:	93c20001 	lbu	v0,1(s8)
  4001e8:	00000000 	nop
  4001ec:	a3c2001c 	sb	v0,28(s8)
  4001f0:	93c20000 	lbu	v0,0(s8)
  4001f4:	00000000 	nop
  4001f8:	a3c2001d 	sb	v0,29(s8)
  4001fc:	03c0e821 	move	sp,s8
  400200:	8fbe0020 	lw	s8,32(sp)
  400204:	27bd0028 	addiu	sp,sp,40
  400208:	03e00008 	jr	ra
  40020c:	00000000 	nop

00400210 <__do_global_ctors_aux>:
  400210:	3c020040 	lui	v0,0x40
  400214:	244212b0 	addiu	v0,v0,4784
  400218:	8c44fffc 	lw	a0,-4(v0)
  40021c:	27bdffe0 	addiu	sp,sp,-32
  400220:	2403ffff 	li	v1,-1
  400224:	afb00010 	sw	s0,16(sp)
  400228:	afbf0018 	sw	ra,24(sp)
  40022c:	afb10014 	sw	s1,20(sp)
  400230:	10830008 	beq	a0,v1,400254 <__do_global_ctors_aux+0x44>
  400234:	2450fffc 	addiu	s0,v0,-4
  400238:	2411ffff 	li	s1,-1
  40023c:	0080f809 	jalr	a0
  400240:	2610fffc 	addiu	s0,s0,-4
  400244:	8e040000 	lw	a0,0(s0)
  400248:	00000000 	nop
  40024c:	1491fffb 	bne	a0,s1,40023c <__do_global_ctors_aux+0x2c>
  400250:	00000000 	nop
  400254:	8fbf0018 	lw	ra,24(sp)
  400258:	8fb10014 	lw	s1,20(sp)
  40025c:	8fb00010 	lw	s0,16(sp)
  400260:	03e00008 	jr	ra
  400264:	27bd0020 	addiu	sp,sp,32

00400268 <call___do_global_ctors_aux>:
  400268:	27bdffe8 	addiu	sp,sp,-24
  40026c:	afbf0010 	sw	ra,16(sp)
  400270:	8fbf0010 	lw	ra,16(sp)
  400274:	00000000 	nop
  400278:	03e00008 	jr	ra
  40027c:	27bd0018 	addiu	sp,sp,24

Disassembly of section .fini:

00400280 <_fini>:
  400280:	27bdffe0 	addiu	sp,sp,-32
  400284:	afbf0014 	sw	ra,20(sp)
  400288:	0c100010 	jal	400040 <_ftext>
  40028c:	00000000 	nop
  400290:	8fbf0014 	lw	ra,20(sp)
  400294:	27bd0020 	addiu	sp,sp,32
  400298:	03e00008 	jr	ra
  40029c:	00000000 	nop
